target datalayout = "e-m:e-p270:32:32-p271:32:32-p272:64:64-i64:64-i128:128-f80:128-n8:16:32:64-S128"
target triple = "x86_64-pc-linux-gnu"

%struct.AVFilterContext = type { ptr, ptr, ptr, ptr, ptr, i32, ptr, ptr, i32, ptr, ptr, i32, i32, ptr, ptr, ptr, ptr, i32, ptr, i32, i32 }
%struct.PanContext = type { ptr, ptr, %struct.AVChannelLayout, [64 x [64 x double]], i64, i32, i32, i32, [64 x i32], ptr }
%struct.AVChannelLayout = type { i32, i32, %union.anon.1, ptr }
%union.anon.1 = type { i64 }
%struct.AVFilterFormatsConfig = type { ptr, ptr, ptr, ptr, ptr }

; Function Attrs: nounwind uwtable
define internal i32 @query_formats(ptr noundef %0, ptr noundef %1, ptr noundef %2) #1 {
  %4 = alloca i32, align 4
  %5 = alloca ptr, align 8
  %6 = alloca ptr, align 8
  %7 = alloca ptr, align 8
  %8 = alloca ptr, align 8
  %9 = alloca ptr, align 8
  %10 = alloca i32, align 4
  %11 = alloca i32, align 4
  store ptr %0, ptr %5, align 8, !tbaa !4
  store ptr %1, ptr %6, align 8, !tbaa !40
  store ptr %2, ptr %7, align 8, !tbaa !40
  call void @llvm.lifetime.start.p0(i64 8, ptr %8) #7
  %12 = load ptr, ptr %5, align 8, !tbaa !4
  %13 = getelementptr inbounds nuw %struct.AVFilterContext, ptr %12, i32 0, i32 9
  %14 = load ptr, ptr %13, align 8, !tbaa !9
  store ptr %14, ptr %8, align 8, !tbaa !22
  call void @llvm.lifetime.start.p0(i64 8, ptr %9) #7
  call void @llvm.lifetime.start.p0(i64 4, ptr %10) #7
  %15 = call ptr @ff_all_channel_counts()
  store ptr %15, ptr %9, align 8, !tbaa !42
  %16 = load ptr, ptr %9, align 8, !tbaa !42
  %17 = load ptr, ptr %6, align 8, !tbaa !40
  %18 = getelementptr inbounds ptr, ptr %17, i64 0
  %19 = load ptr, ptr %18, align 8, !tbaa !44
  %20 = getelementptr inbounds nuw %struct.AVFilterFormatsConfig, ptr %19, i32 0, i32 2
  %21 = call i32 @ff_channel_layouts_ref(ptr noundef %16, ptr noundef %20)
  store i32 %21, ptr %10, align 4, !tbaa !30
  %22 = icmp slt i32 %21, 0
  br i1 %22, label %23, label %25

23:                                               ; preds = %3
  %24 = load i32, ptr %10, align 4, !tbaa !30
  store i32 %24, ptr %4, align 4
  store i32 1, ptr %11, align 4
  br label %39

25:                                               ; preds = %3
  store ptr null, ptr %9, align 8, !tbaa !42
  %26 = load ptr, ptr %8, align 8, !tbaa !22
  %27 = getelementptr inbounds nuw %struct.PanContext, ptr %26, i32 0, i32 2
  %28 = call i32 @ff_add_channel_layout(ptr noundef %9, ptr noundef %27)
  store i32 %28, ptr %10, align 4, !tbaa !30
  %29 = icmp slt i32 %28, 0
  br i1 %29, label %30, label %32

30:                                               ; preds = %25
  %31 = load i32, ptr %10, align 4, !tbaa !30
  store i32 %31, ptr %4, align 4
  store i32 1, ptr %11, align 4
  br label %39

32:                                               ; preds = %25
  %33 = load ptr, ptr %9, align 8, !tbaa !42
  %34 = load ptr, ptr %7, align 8, !tbaa !40
  %35 = getelementptr inbounds ptr, ptr %34, i64 0
  %36 = load ptr, ptr %35, align 8, !tbaa !44
  %37 = getelementptr inbounds nuw %struct.AVFilterFormatsConfig, ptr %36, i32 0, i32 2
  %38 = call i32 @ff_channel_layouts_ref(ptr noundef %33, ptr noundef %37)
  store i32 %38, ptr %4, align 4
  store i32 1, ptr %11, align 4
  br label %39

39:                                               ; preds = %32, %30, %23
  call void @llvm.lifetime.end.p0(i64 4, ptr %10) #7
  call void @llvm.lifetime.end.p0(i64 8, ptr %9) #7
  call void @llvm.lifetime.end.p0(i64 8, ptr %8) #7
  %40 = load i32, ptr %4, align 4
  ret i32 %40
}