; Function Attrs: nounwind uwtable
define internal i32 @query_formats(ptr noundef readonly captures(none) %0, ptr noundef readonly captures(none) %1, ptr noundef readonly captures(none) %2) #1 {
  %4 = alloca ptr, align 8
  %5 = getelementptr inbounds nuw i8, ptr %0, i64 72
  %6 = load ptr, ptr %5, align 8, !tbaa !4
  call void @llvm.lifetime.start.p0(i64 8, ptr nonnull %4) #8
  %7 = tail call ptr @ff_all_channel_counts() #8
  %8 = load ptr, ptr %1, align 8, !tbaa !37
  %9 = getelementptr inbounds nuw i8, ptr %8, i64 16
  %10 = tail call i32 @ff_channel_layouts_ref(ptr noundef %7, ptr noundef nonnull %9) #8
  %11 = icmp slt i32 %10, 0
  br i1 %11, label %21, label %12

12:                                               ; preds = %3
  store ptr null, ptr %4, align 8, !tbaa !39
  %13 = getelementptr inbounds nuw i8, ptr %6, i64 16
  %14 = call i32 @ff_add_channel_layout(ptr noundef nonnull %4, ptr noundef nonnull %13) #8
  %15 = icmp slt i32 %14, 0
  br i1 %15, label %21, label %16

16:                                               ; preds = %12
  %17 = load ptr, ptr %4, align 8, !tbaa !39
  %18 = load ptr, ptr %2, align 8, !tbaa !37
  %19 = getelementptr inbounds nuw i8, ptr %18, i64 16
  %20 = call i32 @ff_channel_layouts_ref(ptr noundef %17, ptr noundef nonnull %19) #8
  br label %21

21:                                               ; preds = %12, %3, %16
  %.0 = phi i32 [ %20, %16 ], [ %10, %3 ], [ %14, %12 ]
  call void @llvm.lifetime.end.p0(i64 8, ptr nonnull %4) #8
  ret i32 %.0
}